target datalayout = "e-m:e-p270:32:32-p271:32:32-p272:64:64-i64:64-i128:128-f80:128-n8:16:32:64-S128"
target triple = "x86_64-pc-linux-gnu"

%struct.AVFilterContext = type { ptr, ptr, ptr, ptr, ptr, i32, ptr, ptr, i32, ptr, ptr, i32, i32, ptr, ptr, ptr, ptr, i32, ptr, i32, i32 }
%struct.ShuffleFramesContext = type { ptr, ptr, ptr, ptr, ptr, i32, i32 }

@.str.8 = private unnamed_addr constant [3 x i8] c" |\00", align 1
@.str.9 = private unnamed_addr constant [3 x i8] c"%d\00", align 1
@.str.10 = private unnamed_addr constant [34 x i8] c"Index %d out of range: [-1, %d].\0A\00", align 1

; Function Attrs: cold nounwind optsize uwtable
define internal i32 @init(ptr noundef %0) #0 {
  %2 = alloca i32, align 4
  %3 = alloca ptr, align 8
  %4 = alloca ptr, align 8
  %5 = alloca ptr, align 8
  %6 = alloca ptr, align 8
  %7 = alloca ptr, align 8
  %8 = alloca i32, align 4
  %9 = alloca i32, align 4
  %10 = alloca i32, align 4
  %11 = alloca ptr, align 8
  store ptr %0, ptr %3, align 8, !tbaa !4
  call void @llvm.lifetime.start.p0(i64 8, ptr %4) #5
  %12 = load ptr, ptr %3, align 8, !tbaa !4
  %13 = getelementptr inbounds nuw %struct.AVFilterContext, ptr %12, i32 0, i32 9
  %14 = load ptr, ptr %13, align 8, !tbaa !9
  store ptr %14, ptr %4, align 8, !tbaa !22
  call void @llvm.lifetime.start.p0(i64 8, ptr %5) #5
  call void @llvm.lifetime.start.p0(i64 8, ptr %6) #5
  store ptr null, ptr %6, align 8, !tbaa !24
  call void @llvm.lifetime.start.p0(i64 8, ptr %7) #5
  call void @llvm.lifetime.start.p0(i64 4, ptr %8) #5
  call void @llvm.lifetime.start.p0(i64 4, ptr %9) #5
  store i32 1, ptr %9, align 4, !tbaa !25
  %15 = load ptr, ptr %4, align 8, !tbaa !22
  %16 = getelementptr inbounds nuw %struct.ShuffleFramesContext, ptr %15, i32 0, i32 1
  %17 = load ptr, ptr %16, align 8, !tbaa !26
  store ptr %17, ptr %7, align 8, !tbaa !24
  br label %18

18:                                               ; preds = %36, %1
  %19 = load ptr, ptr %7, align 8, !tbaa !24
  %20 = load i8, ptr %19, align 1, !tbaa !31
  %21 = icmp ne i8 %20, 0
  br i1 %21, label %22, label %39

22:                                               ; preds = %18
  %23 = load ptr, ptr %7, align 8, !tbaa !24
  %24 = load i8, ptr %23, align 1, !tbaa !31
  %25 = sext i8 %24 to i32
  %26 = icmp eq i32 %25, 124
  br i1 %26, label %32, label %27

27:                                               ; preds = %22
  %28 = load ptr, ptr %7, align 8, !tbaa !24
  %29 = load i8, ptr %28, align 1, !tbaa !31
  %30 = sext i8 %29 to i32
  %31 = icmp eq i32 %30, 32
  br i1 %31, label %32, label %35

32:                                               ; preds = %27, %22
  %33 = load i32, ptr %9, align 4, !tbaa !25
  %34 = add nsw i32 %33, 1
  store i32 %34, ptr %9, align 4, !tbaa !25
  br label %35

35:                                               ; preds = %32, %27
  br label %36

36:                                               ; preds = %35
  %37 = load ptr, ptr %7, align 8, !tbaa !24
  %38 = getelementptr inbounds nuw i8, ptr %37, i32 1
  store ptr %38, ptr %7, align 8, !tbaa !24
  br label %18, !llvm.loop !32

39:                                               ; preds = %18
  %40 = load i32, ptr %9, align 4, !tbaa !25
  %41 = sext i32 %40 to i64
  %42 = call noalias ptr @av_calloc(i64 noundef %41, i64 noundef 8)
  %43 = load ptr, ptr %4, align 8, !tbaa !22
  %44 = getelementptr inbounds nuw %struct.ShuffleFramesContext, ptr %43, i32 0, i32 2
  store ptr %42, ptr %44, align 8, !tbaa !34
  %45 = load i32, ptr %9, align 4, !tbaa !25
  %46 = sext i32 %45 to i64
  %47 = call noalias ptr @av_calloc(i64 noundef %46, i64 noundef 4)
  %48 = load ptr, ptr %4, align 8, !tbaa !22
  %49 = getelementptr inbounds nuw %struct.ShuffleFramesContext, ptr %48, i32 0, i32 3
  store ptr %47, ptr %49, align 8, !tbaa !35
  %50 = load i32, ptr %9, align 4, !tbaa !25
  %51 = sext i32 %50 to i64
  %52 = call noalias ptr @av_calloc(i64 noundef %51, i64 noundef 8)
  %53 = load ptr, ptr %4, align 8, !tbaa !22
  %54 = getelementptr inbounds nuw %struct.ShuffleFramesContext, ptr %53, i32 0, i32 4
  store ptr %52, ptr %54, align 8, !tbaa !36
  %55 = load ptr, ptr %4, align 8, !tbaa !22
  %56 = getelementptr inbounds nuw %struct.ShuffleFramesContext, ptr %55, i32 0, i32 3
  %57 = load ptr, ptr %56, align 8, !tbaa !35
  %58 = icmp ne ptr %57, null
  br i1 %58, label %59, label %69

59:                                               ; preds = %39
  %60 = load ptr, ptr %4, align 8, !tbaa !22
  %61 = getelementptr inbounds nuw %struct.ShuffleFramesContext, ptr %60, i32 0, i32 2
  %62 = load ptr, ptr %61, align 8, !tbaa !34
  %63 = icmp ne ptr %62, null
  br i1 %63, label %64, label %69

64:                                               ; preds = %59
  %65 = load ptr, ptr %4, align 8, !tbaa !22
  %66 = getelementptr inbounds nuw %struct.ShuffleFramesContext, ptr %65, i32 0, i32 4
  %67 = load ptr, ptr %66, align 8, !tbaa !36
  %68 = icmp ne ptr %67, null
  br i1 %68, label %70, label %69

69:                                               ; preds = %64, %59, %39
  store i32 -12, ptr %2, align 4
  store i32 1, ptr %10, align 4
  br label %149

70:                                               ; preds = %64
  %71 = load ptr, ptr %4, align 8, !tbaa !22
  %72 = getelementptr inbounds nuw %struct.ShuffleFramesContext, ptr %71, i32 0, i32 1
  %73 = load ptr, ptr %72, align 8, !tbaa !26
  %74 = call noalias ptr @av_strdup(ptr noundef %73)
  store ptr %74, ptr %5, align 8, !tbaa !24
  %75 = load ptr, ptr %5, align 8, !tbaa !24
  %76 = icmp ne ptr %75, null
  br i1 %76, label %78, label %77

77:                                               ; preds = %70
  store i32 -12, ptr %2, align 4
  store i32 1, ptr %10, align 4
  br label %149

78:                                               ; preds = %70
  store i32 0, ptr %8, align 4, !tbaa !25
  br label %79

79:                                               ; preds = %141, %78
  %80 = load i32, ptr %8, align 4, !tbaa !25
  %81 = load i32, ptr %9, align 4, !tbaa !25
  %82 = icmp slt i32 %80, %81
  br i1 %82, label %83, label %144

83:                                               ; preds = %79
  call void @llvm.lifetime.start.p0(i64 8, ptr %11) #5
  %84 = load i32, ptr %8, align 4, !tbaa !25
  %85 = icmp eq i32 %84, 0
  br i1 %85, label %86, label %88

86:                                               ; preds = %83
  %87 = load ptr, ptr %5, align 8, !tbaa !24
  br label %89

88:                                               ; preds = %83
  br label %89

89:                                               ; preds = %88, %86
  %90 = phi ptr [ %87, %86 ], [ null, %88 ]
  %91 = call ptr @av_strtok(ptr noundef %90, ptr noundef @.str.8, ptr noundef %6)
  store ptr %91, ptr %11, align 8, !tbaa !24
  %92 = load ptr, ptr %11, align 8, !tbaa !24
  %93 = icmp ne ptr %92, null
  br i1 %93, label %94, label %104

94:                                               ; preds = %89
  %95 = load ptr, ptr %11, align 8, !tbaa !24
  %96 = load ptr, ptr %4, align 8, !tbaa !22
  %97 = getelementptr inbounds nuw %struct.ShuffleFramesContext, ptr %96, i32 0, i32 3
  %98 = load ptr, ptr %97, align 8, !tbaa !35
  %99 = load i32, ptr %8, align 4, !tbaa !25
  %100 = sext i32 %99 to i64
  %101 = getelementptr inbounds i32, ptr %98, i64 %100
  %102 = call i32 (ptr, ptr, ...) @__isoc99_sscanf(ptr noundef %95, ptr noundef @.str.9, ptr noundef %101) #5
  %103 = icmp ne i32 %102, 1
  br i1 %103, label %104, label %106

104:                                              ; preds = %94, %89
  %105 = load ptr, ptr %5, align 8, !tbaa !24
  call void @av_free(ptr noundef %105)
  store i32 -22, ptr %2, align 4
  store i32 1, ptr %10, align 4
  br label %138

106:                                              ; preds = %94
  %107 = load ptr, ptr %4, align 8, !tbaa !22
  %108 = getelementptr inbounds nuw %struct.ShuffleFramesContext, ptr %107, i32 0, i32 3
  %109 = load ptr, ptr %108, align 8, !tbaa !35
  %110 = load i32, ptr %8, align 4, !tbaa !25
  %111 = sext i32 %110 to i64
  %112 = getelementptr inbounds i32, ptr %109, i64 %111
  %113 = load i32, ptr %112, align 4, !tbaa !25
  %114 = icmp slt i32 %113, -1
  br i1 %114, label %125, label %115

115:                                              ; preds = %106
  %116 = load ptr, ptr %4, align 8, !tbaa !22
  %117 = getelementptr inbounds nuw %struct.ShuffleFramesContext, ptr %116, i32 0, i32 3
  %118 = load ptr, ptr %117, align 8, !tbaa !35
  %119 = load i32, ptr %8, align 4, !tbaa !25
  %120 = sext i32 %119 to i64
  %121 = getelementptr inbounds i32, ptr %118, i64 %120
  %122 = load i32, ptr %121, align 4, !tbaa !25
  %123 = load i32, ptr %9, align 4, !tbaa !25
  %124 = icmp sge i32 %122, %123
  br i1 %124, label %125, label %137

125:                                              ; preds = %115, %106
  %126 = load ptr, ptr %3, align 8, !tbaa !4
  %127 = load ptr, ptr %4, align 8, !tbaa !22
  %128 = getelementptr inbounds nuw %struct.ShuffleFramesContext, ptr %127, i32 0, i32 3
  %129 = load ptr, ptr %128, align 8, !tbaa !35
  %130 = load i32, ptr %8, align 4, !tbaa !25
  %131 = sext i32 %130 to i64
  %132 = getelementptr inbounds i32, ptr %129, i64 %131
  %133 = load i32, ptr %132, align 4, !tbaa !25
  %134 = load i32, ptr %9, align 4, !tbaa !25
  %135 = sub nsw i32 %134, 1
  call void (ptr, i32, ptr, ...) @av_log(ptr noundef %126, i32 noundef 16, ptr noundef @.str.10, i32 noundef %133, i32 noundef %135)
  %136 = load ptr, ptr %5, align 8, !tbaa !24
  call void @av_free(ptr noundef %136)
  store i32 -22, ptr %2, align 4
  store i32 1, ptr %10, align 4
  br label %138

137:                                              ; preds = %115
  store i32 0, ptr %10, align 4
  br label %138

138:                                              ; preds = %137, %125, %104
  call void @llvm.lifetime.end.p0(i64 8, ptr %11) #5
  %139 = load i32, ptr %10, align 4
  switch i32 %139, label %149 [
    i32 0, label %140
  ]

140:                                              ; preds = %138
  br label %141

141:                                              ; preds = %140
  %142 = load i32, ptr %8, align 4, !tbaa !25
  %143 = add nsw i32 %142, 1
  store i32 %143, ptr %8, align 4, !tbaa !25
  br label %79, !llvm.loop !37

144:                                              ; preds = %79
  %145 = load i32, ptr %9, align 4, !tbaa !25
  %146 = load ptr, ptr %4, align 8, !tbaa !22
  %147 = getelementptr inbounds nuw %struct.ShuffleFramesContext, ptr %146, i32 0, i32 6
  store i32 %145, ptr %147, align 4, !tbaa !38
  %148 = load ptr, ptr %5, align 8, !tbaa !24
  call void @av_free(ptr noundef %148)
  store i32 0, ptr %2, align 4
  store i32 1, ptr %10, align 4
  br label %149

149:                                              ; preds = %144, %138, %77, %69
  call void @llvm.lifetime.end.p0(i64 4, ptr %9) #5
  call void @llvm.lifetime.end.p0(i64 4, ptr %8) #5
  call void @llvm.lifetime.end.p0(i64 8, ptr %7) #5
  call void @llvm.lifetime.end.p0(i64 8, ptr %6) #5
  call void @llvm.lifetime.end.p0(i64 8, ptr %5) #5
  call void @llvm.lifetime.end.p0(i64 8, ptr %4) #5
  %150 = load i32, ptr %2, align 4
  ret i32 %150
}