; Function Attrs: cold nounwind optsize uwtable
define internal range(i32 -22, 1) i32 @init(ptr noundef %0) #0 {
  %2 = alloca ptr, align 8
  %3 = getelementptr inbounds nuw i8, ptr %0, i64 72
  %4 = load ptr, ptr %3, align 8, !tbaa !4
  call void @llvm.lifetime.start.p0(i64 8, ptr nonnull %2) #5
  store ptr null, ptr %2, align 8, !tbaa !20
  %5 = getelementptr inbounds nuw i8, ptr %4, i64 8
  %6 = load ptr, ptr %5, align 8, !tbaa !21
  br label %7

7:                                                ; preds = %11, %1
  %.046 = phi ptr [ %6, %1 ], [ %12, %11 ]
  %.043 = phi i32 [ 1, %1 ], [ %.144, %11 ]
  %8 = load i8, ptr %.046, align 1, !tbaa !26
  switch i8 %8, label %11 [
    i8 0, label %13
    i8 124, label %9
    i8 32, label %9
  ]

9:                                                ; preds = %7, %7
  %10 = add nsw i32 %.043, 1
  br label %11

11:                                               ; preds = %7, %9
  %.144 = phi i32 [ %10, %9 ], [ %.043, %7 ]
  %12 = getelementptr inbounds nuw i8, ptr %.046, i64 1
  br label %7, !llvm.loop !27

13:                                               ; preds = %7
  %14 = sext i32 %.043 to i64
  %15 = tail call noalias ptr @av_calloc(i64 noundef %14, i64 noundef 8) #5
  %16 = getelementptr inbounds nuw i8, ptr %4, i64 16
  store ptr %15, ptr %16, align 8, !tbaa !29
  %17 = tail call noalias ptr @av_calloc(i64 noundef %14, i64 noundef 4) #5
  %18 = getelementptr inbounds nuw i8, ptr %4, i64 24
  store ptr %17, ptr %18, align 8, !tbaa !30
  %19 = tail call noalias ptr @av_calloc(i64 noundef %14, i64 noundef 8) #5
  %20 = getelementptr inbounds nuw i8, ptr %4, i64 32
  store ptr %19, ptr %20, align 8, !tbaa !31
  %21 = load ptr, ptr %18, align 8, !tbaa !30
  %.not52 = icmp eq ptr %21, null
  br i1 %.not52, label %.critedge, label %22

22:                                               ; preds = %13
  %23 = load ptr, ptr %16, align 8, !tbaa !29
  %.not53 = icmp eq ptr %23, null
  %.not54 = icmp eq ptr %19, null
  %or.cond = select i1 %.not53, i1 true, i1 %.not54
  br i1 %or.cond, label %.critedge, label %24

24:                                               ; preds = %22
  %25 = load ptr, ptr %5, align 8, !tbaa !21
  %26 = tail call noalias ptr @av_strdup(ptr noundef %25) #5
  %.not55 = icmp eq ptr %26, null
  br i1 %.not55, label %.critedge, label %.preheader

.preheader:                                       ; preds = %24
  %27 = icmp sgt i32 %.043, 0
  br i1 %27, label %.lr.ph.preheader, label %._crit_edge

.lr.ph.preheader:                                 ; preds = %.preheader
  %wide.trip.count = zext nneg i32 %.043 to i64
  br label %.lr.ph

28:                                               ; preds = %36
  %indvars.iv.next = add nuw nsw i64 %indvars.iv, 1
  %exitcond.not = icmp eq i64 %indvars.iv.next, %wide.trip.count
  br i1 %exitcond.not, label %._crit_edge, label %.lr.ph, !llvm.loop !32

.lr.ph:                                           ; preds = %.lr.ph.preheader, %28
  %indvars.iv = phi i64 [ 0, %.lr.ph.preheader ], [ %indvars.iv.next, %28 ]
  %29 = icmp eq i64 %indvars.iv, 0
  %30 = select i1 %29, ptr %26, ptr null
  %31 = call ptr @av_strtok(ptr noundef %30, ptr noundef nonnull @.str.8, ptr noundef nonnull %2) #5
  %.not56 = icmp eq ptr %31, null
  br i1 %.not56, label %.critedge.sink.split, label %32

32:                                               ; preds = %.lr.ph
  %33 = load ptr, ptr %18, align 8, !tbaa !30
  %34 = getelementptr inbounds nuw i32, ptr %33, i64 %indvars.iv
  %35 = call i32 (ptr, ptr, ...) @__isoc99_sscanf(ptr noundef nonnull %31, ptr noundef nonnull @.str.9, ptr noundef %34) #5
  %.not57 = icmp eq i32 %35, 1
  br i1 %.not57, label %36, label %.critedge.sink.split

36:                                               ; preds = %32
  %37 = load ptr, ptr %18, align 8, !tbaa !30
  %38 = getelementptr inbounds nuw i32, ptr %37, i64 %indvars.iv
  %39 = load i32, ptr %38, align 4, !tbaa !33
  %40 = icmp sgt i32 %39, -2
  %.not58 = icmp slt i32 %39, %.043
  %or.cond59 = select i1 %40, i1 %.not58, i1 false
  br i1 %or.cond59, label %28, label %41

41:                                               ; preds = %36
  %42 = add nsw i32 %.043, -1
  call void (ptr, i32, ptr, ...) @av_log(ptr noundef %0, i32 noundef 16, ptr noundef nonnull @.str.10, i32 noundef %39, i32 noundef %42) #5
  br label %.critedge.sink.split

._crit_edge:                                      ; preds = %28, %.preheader
  %43 = getelementptr inbounds nuw i8, ptr %4, i64 44
  store i32 %.043, ptr %43, align 4, !tbaa !34
  br label %.critedge.sink.split

.critedge.sink.split:                             ; preds = %.lr.ph, %32, %._crit_edge, %41
  %.0.ph = phi i32 [ -22, %41 ], [ 0, %._crit_edge ], [ -22, %32 ], [ -22, %.lr.ph ]
  call void @av_free(ptr noundef nonnull %26) #5
  br label %.critedge

.critedge:                                        ; preds = %.critedge.sink.split, %24, %13, %22
  %.0 = phi i32 [ -12, %22 ], [ -12, %13 ], [ -12, %24 ], [ %.0.ph, %.critedge.sink.split ]
  call void @llvm.lifetime.end.p0(i64 8, ptr nonnull %2) #5
  ret i32 %.0
}